; Function Attrs: cold nounwind optsize uwtable
define internal i32 @ff_tx_fft_factor_init_int32_c(ptr noundef %0, ptr readnone captures(none) %1, i64 noundef %2, ptr noundef %3, i32 noundef %4, i32 %5, ptr readnone captures(none) %6) #0 {
  tail call void @ff_tx_init_tabs_int32(i32 noundef %4) #17
  %8 = icmp eq i32 %4, 15
  br i1 %8, label %9, label %11

9:                                                ; preds = %7
  %10 = tail call i32 @ff_tx_gen_pfa_input_map(ptr noundef %0, ptr noundef %3, i32 noundef 3, i32 noundef 5) #16
  br label %15

11:                                               ; preds = %7
  %12 = and i64 %2, 2305843009213693952
  %.not = icmp eq i64 %12, 0
  br i1 %.not, label %15, label %13

13:                                               ; preds = %11
  %14 = tail call i32 @ff_tx_gen_default_map(ptr noundef %0, ptr noundef %3) #16
  br label %15

15:                                               ; preds = %11, %13, %9
  %.0 = phi i32 [ %10, %9 ], [ %14, %13 ], [ 0, %11 ]
  ret i32 %.0
}